target datalayout = "e-m:e-p270:32:32-p271:32:32-p272:64:64-i64:64-i128:128-f80:128-n8:16:32:64-S128"
target triple = "x86_64-unknown-linux-gnu"

%"class.std::__shared_count" = type { ptr }
%"class.arrow::compute::Expression" = type { %"class.std::shared_ptr.12" }
%"class.std::shared_ptr.12" = type { %"class.std::__shared_ptr.13" }
%"class.std::__shared_ptr.13" = type { ptr, %"class.std::__shared_count" }
%"struct.arrow::TypeHolder" = type { ptr, %"class.std::shared_ptr.9" }
%"class.std::shared_ptr.9" = type { %"class.std::__shared_ptr.10" }
%"class.std::__shared_ptr.10" = type { ptr, %"class.std::__shared_count" }
%"struct.arrow::compute::Expression::Parameter" = type { %"class.arrow::FieldRef", %"struct.arrow::TypeHolder", %"class.arrow::internal::StaticVectorImpl" }
%"class.arrow::FieldRef" = type { %"class.std::variant.30" }
%"class.std::variant.30" = type { %"struct.std::__detail::__variant::_Variant_base.base.51", [7 x i8] }
%"struct.std::__detail::__variant::_Variant_base.base.51" = type { %"struct.std::__detail::__variant::_Move_assign_base.base.50" }
%"struct.std::__detail::__variant::_Move_assign_base.base.50" = type { %"struct.std::__detail::__variant::_Copy_assign_base.base.49" }
%"struct.std::__detail::__variant::_Copy_assign_base.base.49" = type { %"struct.std::__detail::__variant::_Move_ctor_base.base.48" }
%"struct.std::__detail::__variant::_Move_ctor_base.base.48" = type { %"struct.std::__detail::__variant::_Copy_ctor_base.base.47" }
%"struct.std::__detail::__variant::_Copy_ctor_base.base.47" = type { %"struct.std::__detail::__variant::_Variant_storage.base.46" }
%"struct.std::__detail::__variant::_Variant_storage.base.46" = type { %"union.std::__detail::__variant::_Variadic_union.37", i8 }
%"union.std::__detail::__variant::_Variadic_union.37" = type { %"union.std::__detail::__variant::_Variadic_union.40" }
%"union.std::__detail::__variant::_Variadic_union.40" = type { %"struct.std::__detail::__variant::_Uninitialized.41" }
%"struct.std::__detail::__variant::_Uninitialized.41" = type { %"struct.__gnu_cxx::__aligned_membuf.42" }
%"struct.__gnu_cxx::__aligned_membuf.42" = type { [32 x i8] }
%"class.arrow::internal::StaticVectorImpl" = type { %"struct.arrow::internal::SmallVectorStorage" }
%"struct.arrow::internal::SmallVectorStorage" = type { [2 x %"class.arrow::internal::AlignedStorage"], i64, ptr, i64 }
%"class.arrow::internal::AlignedStorage" = type { %"union.std::aligned_storage<4, 4>::type" }
%"union.std::aligned_storage<4, 4>::type" = type { [4 x i8] }
%"struct.std::__detail::__variant::_Variant_storage.85" = type { %"union.std::__detail::__variant::_Variadic_union.86", i8, [7 x i8] }
%"union.std::__detail::__variant::_Variadic_union.86" = type { %"union.std::__detail::__variant::_Variadic_union.89" }
%"union.std::__detail::__variant::_Variadic_union.89" = type { %"union.std::__detail::__variant::_Variadic_union.92" }
%"union.std::__detail::__variant::_Variadic_union.92" = type { %"struct.std::__detail::__variant::_Uninitialized.93" }
%"struct.std::__detail::__variant::_Uninitialized.93" = type { %"struct.__gnu_cxx::__aligned_membuf.94" }
%"struct.__gnu_cxx::__aligned_membuf.94" = type { [144 x i8] }
%"struct.std::__detail::__variant::_Uninitialized.90" = type { %"struct.__gnu_cxx::__aligned_membuf.91" }
%"struct.__gnu_cxx::__aligned_membuf.91" = type { [96 x i8] }

; Function Attrs: mustprogress nounwind uwtable
define linkonce_odr noundef ptr @_ZN9__gnu_cxx16__aligned_membufIN5arrow7compute10Expression9ParameterEE7_M_addrEv(ptr noundef nonnull align 8 dereferenceable(96) %this) #1 comdat align 2 {
entry:
  %this.addr = alloca ptr, align 8
  store ptr %this, ptr %this.addr, align 8
  %this1 = load ptr, ptr %this.addr, align 8
  %_M_storage = getelementptr inbounds %"struct.__gnu_cxx::__aligned_membuf.91", ptr %this1, i32 0, i32 0
  ret ptr %_M_storage
}

; Function Attrs: mustprogress nounwind uwtable
define linkonce_odr noundef ptr @_ZN9__gnu_cxx16__aligned_membufIN5arrow7compute10Expression9ParameterEE6_M_ptrEv(ptr noundef nonnull align 8 dereferenceable(96) %this) #1 comdat align 2 {
entry:
  %this.addr = alloca ptr, align 8
  store ptr %this, ptr %this.addr, align 8
  %this1 = load ptr, ptr %this.addr, align 8
  %call = call noundef ptr @_ZN9__gnu_cxx16__aligned_membufIN5arrow7compute10Expression9ParameterEE7_M_addrEv(ptr noundef nonnull align 8 dereferenceable(96) %this1) #8
  ret ptr %call
}

; Function Attrs: mustprogress nounwind uwtable
define linkonce_odr noundef nonnull align 8 dereferenceable(96) ptr @_ZNRSt8__detail9__variant14_UninitializedIN5arrow7compute10Expression9ParameterELb0EE6_M_getEv(ptr noundef nonnull align 8 dereferenceable(96) %this) #1 comdat align 2 {
entry:
  %this.addr = alloca ptr, align 8
  store ptr %this, ptr %this.addr, align 8
  %this1 = load ptr, ptr %this.addr, align 8
  %_M_storage = getelementptr inbounds %"struct.std::__detail::__variant::_Uninitialized.90", ptr %this1, i32 0, i32 0
  %call = call noundef ptr @_ZN9__gnu_cxx16__aligned_membufIN5arrow7compute10Expression9ParameterEE6_M_ptrEv(ptr noundef nonnull align 8 dereferenceable(96) %_M_storage) #8
  ret ptr %call
}

; Function Attrs: mustprogress nounwind uwtable
define linkonce_odr noundef nonnull align 8 dereferenceable(96) ptr @_ZNSt8__detail9__variant7__get_nILm1ERNS0_15_Variadic_unionIJN5arrow5DatumENS3_7compute10Expression9ParameterENS6_4CallEEEEEEDcOT0_(ptr noundef nonnull align 8 dereferenceable(144) %__u) #1 comdat {
entry:
  %__u.addr = alloca ptr, align 8
  store ptr %__u, ptr %__u.addr, align 8
  %0 = load ptr, ptr %__u.addr, align 8
  %call = call noundef nonnull align 8 dereferenceable(96) ptr @_ZNRSt8__detail9__variant14_UninitializedIN5arrow7compute10Expression9ParameterELb0EE6_M_getEv(ptr noundef nonnull align 8 dereferenceable(96) %0) #8
  ret ptr %call
}

; Function Attrs: mustprogress nounwind uwtable
define linkonce_odr noundef nonnull align 8 dereferenceable(96) ptr @_ZNSt8__detail9__variant5__getILm1ERSt7variantIJN5arrow5DatumENS3_7compute10Expression9ParameterENS6_4CallEEEEEDcOT0_(ptr noundef nonnull align 8 dereferenceable(145) %__v) #1 comdat {
entry:
  %__v.addr = alloca ptr, align 8
  store ptr %__v, ptr %__v.addr, align 8
  %0 = load ptr, ptr %__v.addr, align 8
  %_M_u = getelementptr inbounds %"struct.std::__detail::__variant::_Variant_storage.85", ptr %0, i32 0, i32 0
  %call = call noundef nonnull align 8 dereferenceable(96) ptr @_ZNSt8__detail9__variant7__get_nILm1ERNS0_15_Variadic_unionIJN5arrow5DatumENS3_7compute10Expression9ParameterENS6_4CallEEEEEEDcOT0_(ptr noundef nonnull align 8 dereferenceable(144) %_M_u) #8
  ret ptr %call
}

; Function Attrs: mustprogress nounwind uwtable
define linkonce_odr noundef i64 @_ZNKSt7variantIJN5arrow5DatumENS0_7compute10Expression9ParameterENS3_4CallEEE5indexEv(ptr noundef nonnull align 8 dereferenceable(145) %this) #1 comdat align 2 {
entry:
  %this.addr = alloca ptr, align 8
  store ptr %this, ptr %this.addr, align 8
  %this1 = load ptr, ptr %this.addr, align 8
  %_M_index = getelementptr inbounds %"struct.std::__detail::__variant::_Variant_storage.85", ptr %this1, i32 0, i32 1
  %0 = load i8, ptr %_M_index, align 8
  %conv = sext i8 %0 to i64
  ret i64 %conv
}

; Function Attrs: mustprogress nounwind uwtable
define linkonce_odr noundef ptr @_ZSt6get_ifILm1EJN5arrow5DatumENS0_7compute10Expression9ParameterENS3_4CallEEENSt11add_pointerINSt19variant_alternativeIXT_ESt7variantIJDpT0_EEE4typeEE4typeEPSB_(ptr noundef %__ptr) #1 comdat {
entry:
  %retval = alloca ptr, align 8
  %__ptr.addr = alloca ptr, align 8
  store ptr %__ptr, ptr %__ptr.addr, align 8
  %0 = load ptr, ptr %__ptr.addr, align 8
  %tobool = icmp ne ptr %0, null
  br i1 %tobool, label %land.lhs.true, label %if.end

land.lhs.true:                                    ; preds = %entry
  %1 = load ptr, ptr %__ptr.addr, align 8
  %call = call noundef i64 @_ZNKSt7variantIJN5arrow5DatumENS0_7compute10Expression9ParameterENS3_4CallEEE5indexEv(ptr noundef nonnull align 8 dereferenceable(145) %1) #8
  %cmp = icmp eq i64 %call, 1
  br i1 %cmp, label %if.then, label %if.end

if.then:                                          ; preds = %land.lhs.true
  %2 = load ptr, ptr %__ptr.addr, align 8
  %call1 = call noundef nonnull align 8 dereferenceable(96) ptr @_ZNSt8__detail9__variant5__getILm1ERSt7variantIJN5arrow5DatumENS3_7compute10Expression9ParameterENS6_4CallEEEEEDcOT0_(ptr noundef nonnull align 8 dereferenceable(145) %2) #8
  store ptr %call1, ptr %retval, align 8
  br label %return

if.end:                                           ; preds = %land.lhs.true, %entry
  store ptr null, ptr %retval, align 8
  br label %return

return:                                           ; preds = %if.end, %if.then
  %3 = load ptr, ptr %retval, align 8
  ret ptr %3
}

; Function Attrs: mustprogress nounwind uwtable
define linkonce_odr noundef zeroext i1 @_ZNKSt12__shared_ptrISt7variantIJN5arrow5DatumENS1_7compute10Expression9ParameterENS4_4CallEEELN9__gnu_cxx12_Lock_policyE2EEcvbEv(ptr noundef nonnull align 8 dereferenceable(16) %this) #1 comdat align 2 {
entry:
  %this.addr = alloca ptr, align 8
  store ptr %this, ptr %this.addr, align 8
  %this1 = load ptr, ptr %this.addr, align 8
  %_M_ptr = getelementptr inbounds %"class.std::__shared_ptr.13", ptr %this1, i32 0, i32 0
  %0 = load ptr, ptr %_M_ptr, align 8
  %cmp = icmp ne ptr %0, null
  ret i1 %cmp
}

; Function Attrs: mustprogress nounwind uwtable
define linkonce_odr noundef ptr @_ZSt6get_ifIN5arrow7compute10Expression9ParameterEJNS0_5DatumES3_NS2_4CallEEENSt11add_pointerIT_E4typeEPSt7variantIJDpT0_EE(ptr noundef %__ptr) #1 comdat {
entry:
  %__ptr.addr = alloca ptr, align 8
  %__n = alloca i64, align 8
  store ptr %__ptr, ptr %__ptr.addr, align 8
  store i64 1, ptr %__n, align 8
  %0 = load ptr, ptr %__ptr.addr, align 8
  %call = call noundef ptr @_ZSt6get_ifILm1EJN5arrow5DatumENS0_7compute10Expression9ParameterENS3_4CallEEENSt11add_pointerINSt19variant_alternativeIXT_ESt7variantIJDpT0_EEE4typeEE4typeEPSB_(ptr noundef %0) #8
  ret ptr %call
}

; Function Attrs: mustprogress nounwind uwtable
define linkonce_odr noundef ptr @_ZNKSt12__shared_ptrISt7variantIJN5arrow5DatumENS1_7compute10Expression9ParameterENS4_4CallEEELN9__gnu_cxx12_Lock_policyE2EE3getEv(ptr noundef nonnull align 8 dereferenceable(16) %this) #1 comdat align 2 {
entry:
  %this.addr = alloca ptr, align 8
  store ptr %this, ptr %this.addr, align 8
  %this1 = load ptr, ptr %this.addr, align 8
  %_M_ptr = getelementptr inbounds %"class.std::__shared_ptr.13", ptr %this1, i32 0, i32 0
  %0 = load ptr, ptr %_M_ptr, align 8
  ret ptr %0
}

; Function Attrs: mustprogress nounwind uwtable
define linkonce_odr noundef zeroext i1 @_ZSteqISt7variantIJN5arrow5DatumENS1_7compute10Expression9ParameterENS4_4CallEEEEbRKSt10shared_ptrIT_EDn(ptr noundef nonnull align 8 dereferenceable(16) %__a, ptr %0) #1 comdat {
entry:
  %__a.addr = alloca ptr, align 8
  %.addr = alloca ptr, align 8
  store ptr %__a, ptr %__a.addr, align 8
  store ptr %0, ptr %.addr, align 8
  %1 = load ptr, ptr %__a.addr, align 8
  %call = call noundef zeroext i1 @_ZNKSt12__shared_ptrISt7variantIJN5arrow5DatumENS1_7compute10Expression9ParameterENS4_4CallEEELN9__gnu_cxx12_Lock_policyE2EEcvbEv(ptr noundef nonnull align 8 dereferenceable(16) %1) #8
  %lnot = xor i1 %call, true
  ret i1 %lnot
}

; Function Attrs: mustprogress nounwind uwtable
define noundef ptr @_ZNK5arrow7compute10Expression9parameterEv(ptr noundef nonnull align 8 dereferenceable(16) %this) #1 align 2 {
entry:
  %retval = alloca ptr, align 8
  %this.addr = alloca ptr, align 8
  store ptr %this, ptr %this.addr, align 8
  %this1 = load ptr, ptr %this.addr, align 8
  %impl_ = getelementptr inbounds %"class.arrow::compute::Expression", ptr %this1, i32 0, i32 0
  %call = call noundef zeroext i1 @_ZSteqISt7variantIJN5arrow5DatumENS1_7compute10Expression9ParameterENS4_4CallEEEEbRKSt10shared_ptrIT_EDn(ptr noundef nonnull align 8 dereferenceable(16) %impl_, ptr null) #8
  br i1 %call, label %if.then, label %if.end

if.then:                                          ; preds = %entry
  store ptr null, ptr %retval, align 8
  br label %return

if.end:                                           ; preds = %entry
  %impl_2 = getelementptr inbounds %"class.arrow::compute::Expression", ptr %this1, i32 0, i32 0
  %call3 = call noundef ptr @_ZNKSt12__shared_ptrISt7variantIJN5arrow5DatumENS1_7compute10Expression9ParameterENS4_4CallEEELN9__gnu_cxx12_Lock_policyE2EE3getEv(ptr noundef nonnull align 8 dereferenceable(16) %impl_2) #8
  %call4 = call noundef ptr @_ZSt6get_ifIN5arrow7compute10Expression9ParameterEJNS0_5DatumES3_NS2_4CallEEENSt11add_pointerIT_E4typeEPSt7variantIJDpT0_EE(ptr noundef %call3) #8
  store ptr %call4, ptr %retval, align 8
  br label %return

return:                                           ; preds = %if.end, %if.then
  %0 = load ptr, ptr %retval, align 8
  ret ptr %0
}

; Function Attrs: mustprogress nounwind uwtable
define noundef ptr @_ZNK5arrow7compute10Expression9field_refEv(ptr noundef nonnull align 8 dereferenceable(16) %this) #1 align 2 {
entry:
  %retval = alloca ptr, align 8
  %this.addr = alloca ptr, align 8
  %parameter = alloca ptr, align 8
  store ptr %this, ptr %this.addr, align 8
  %this1 = load ptr, ptr %this.addr, align 8
  %call = call noundef ptr @_ZNK5arrow7compute10Expression9parameterEv(ptr noundef nonnull align 8 dereferenceable(16) %this1)
  store ptr %call, ptr %parameter, align 8
  %0 = load ptr, ptr %parameter, align 8
  %tobool = icmp ne ptr %0, null
  br i1 %tobool, label %if.then, label %if.end

if.then:                                          ; preds = %entry
  %1 = load ptr, ptr %parameter, align 8
  %ref = getelementptr inbounds %"struct.arrow::compute::Expression::Parameter", ptr %1, i32 0, i32 0
  store ptr %ref, ptr %retval, align 8
  br label %return

if.end:                                           ; preds = %entry
  store ptr null, ptr %retval, align 8
  br label %return

return:                                           ; preds = %if.end, %if.then
  %2 = load ptr, ptr %retval, align 8
  ret ptr %2
}